; Function Attrs: nofree norecurse nosync nounwind memory(read, inaccessiblemem: none) uwtable
define ptr @zend_get_this_object(ptr noundef readonly %0) local_unnamed_addr #8 {
  %.not15 = icmp eq ptr %0, null
  br i1 %.not15, label %.loopexit, label %.lr.ph

.lr.ph:                                           ; preds = %1, %16
  %.016 = phi ptr [ %18, %16 ], [ %0, %1 ]
  %2 = getelementptr inbounds i8, ptr %.016, i64 40
  %3 = load i8, ptr %2, align 8
  %4 = icmp eq i8 %3, 8
  br i1 %4, label %5, label %8

5:                                                ; preds = %.lr.ph
  %6 = getelementptr inbounds i8, ptr %.016, i64 32
  %7 = load ptr, ptr %6, align 8
  br label %.loopexit

8:                                                ; preds = %.lr.ph
  %9 = getelementptr inbounds i8, ptr %.016, i64 24
  %10 = load ptr, ptr %9, align 8
  %.not11 = icmp eq ptr %10, null
  br i1 %.not11, label %16, label %11

11:                                               ; preds = %8
  %12 = load i8, ptr %10, align 8
  %.not12 = icmp eq i8 %12, 1
  br i1 %.not12, label %13, label %.loopexit

13:                                               ; preds = %11
  %14 = getelementptr inbounds i8, ptr %10, i64 16
  %15 = load ptr, ptr %14, align 8
  %.not13 = icmp eq ptr %15, null
  br i1 %.not13, label %16, label %.loopexit

16:                                               ; preds = %8, %13
  %17 = getelementptr inbounds i8, ptr %.016, i64 48
  %18 = load ptr, ptr %17, align 8
  %.not = icmp eq ptr %18, null
  br i1 %.not, label %.loopexit, label %.lr.ph

.loopexit:                                        ; preds = %13, %11, %16, %1, %5
  %.09 = phi ptr [ %7, %5 ], [ null, %1 ], [ null, %16 ], [ null, %11 ], [ null, %13 ]
  ret ptr %.09
}